; ModuleID = 'C:/Dev/C++/fridayc-antlr-llvm/examples/ArrayList.fr'
source_filename = "C:/Dev/C++/fridayc-antlr-llvm/examples/ArrayList.fr"

define void @_ZN04mainE() {
  ret void
}

define ptr @"_ZN11collections9ArrayList3getE10*ArrayList3int"(ptr %this, i64 %index) {
  ret void
}

define void @"_ZN11collections9ArrayList3setE10*ArrayList3int5*void"(ptr %this, i64 %index, ptr %element) {
  ret void
}

define i64 @"_ZN11collections9ArrayList4sizeE10*ArrayList"(ptr %this) {
  ret void
}

define i64 @"_ZN11collections9ArrayList8max_sizeE10*ArrayList"(ptr %this) {
  ret void
}

define void @"_ZN11collections9ArrayList3popE10*ArrayList"(ptr %this) {
  ret void
}

define { i64, ptr, i64 } @_ZN11collections9ArrayList6createE() {
  ret void
}

define void @"_ZN11collections9ArrayList4pushE10*ArrayList5*void"(ptr %this, ptr %obj) {
  ret void
}

define void @"_ZN11collections9ArrayList7destroyE10*ArrayList"(ptr %this) {
  ret void
}

define void @"_ZN11collections9ArrayList4growE10*ArrayList"(ptr %this) {
  ret void
}
